target datalayout = "e-m:e-p270:32:32-p271:32:32-p272:64:64-i64:64-i128:128-f80:128-n8:16:32:64-S128"
target triple = "x86_64-pc-linux-gnu"

; Function Attrs: nounwind uwtable
define double @vectors_inner_product(i32 noundef %0, ptr noundef %1, ptr noundef %2) #0 {
  %4 = alloca i32, align 4
  %5 = alloca ptr, align 8
  %6 = alloca ptr, align 8
  %7 = alloca i32, align 4
  %8 = alloca double, align 8
  store i32 %0, ptr %4, align 4, !tbaa !8
  store ptr %1, ptr %5, align 8, !tbaa !10
  store ptr %2, ptr %6, align 8, !tbaa !10
  call void @llvm.lifetime.start.p0(i64 4, ptr %7) #8
  call void @llvm.lifetime.start.p0(i64 8, ptr %8) #8
  store double 0.000000e+00, ptr %8, align 8, !tbaa !12
  store i32 0, ptr %7, align 4, !tbaa !8
  br label %9

9:                                                ; preds = %26, %3
  %10 = load i32, ptr %7, align 4, !tbaa !8
  %11 = load i32, ptr %4, align 4, !tbaa !8
  %12 = icmp slt i32 %10, %11
  br i1 %12, label %13, label %29

13:                                               ; preds = %9
  %14 = load ptr, ptr %5, align 8, !tbaa !10
  %15 = load i32, ptr %7, align 4, !tbaa !8
  %16 = sext i32 %15 to i64
  %17 = getelementptr inbounds double, ptr %14, i64 %16
  %18 = load double, ptr %17, align 8, !tbaa !12
  %19 = load ptr, ptr %6, align 8, !tbaa !10
  %20 = load i32, ptr %7, align 4, !tbaa !8
  %21 = sext i32 %20 to i64
  %22 = getelementptr inbounds double, ptr %19, i64 %21
  %23 = load double, ptr %22, align 8, !tbaa !12
  %24 = load double, ptr %8, align 8, !tbaa !12
  %25 = call double @llvm.fmuladd.f64(double %18, double %23, double %24)
  store double %25, ptr %8, align 8, !tbaa !12
  br label %26

26:                                               ; preds = %13
  %27 = load i32, ptr %7, align 4, !tbaa !8
  %28 = add nsw i32 %27, 1
  store i32 %28, ptr %7, align 4, !tbaa !8
  br label %9, !llvm.loop !30

29:                                               ; preds = %9
  %30 = load double, ptr %8, align 8, !tbaa !12
  call void @llvm.lifetime.end.p0(i64 8, ptr %8) #8
  call void @llvm.lifetime.end.p0(i64 4, ptr %7) #8
  ret double %30
}

; Function Attrs: nounwind uwtable
define double @norm(ptr noundef %0, i32 noundef %1) #0 {
  %3 = alloca ptr, align 8
  %4 = alloca i32, align 4
  store ptr %0, ptr %3, align 8, !tbaa !10
  store i32 %1, ptr %4, align 4, !tbaa !8
  %5 = load i32, ptr %4, align 4, !tbaa !8
  %6 = add nsw i32 %5, 1
  %7 = load ptr, ptr %3, align 8, !tbaa !10
  %8 = load ptr, ptr %3, align 8, !tbaa !10
  %9 = call double @vectors_inner_product(i32 noundef %6, ptr noundef %7, ptr noundef %8)
  %10 = call double @sqrt(double noundef %9) #8, !tbaa !8
  ret double %10
}