; Function Attrs: nofree nounwind memory(write, argmem: readwrite) uwtable
define double @norm(ptr noundef readonly captures(none) %0, i32 noundef %1) local_unnamed_addr #4 {
  %3 = icmp sgt i32 %1, -1
  br i1 %3, label %.lr.ph.preheader.i, label %vectors_inner_product.exit

.lr.ph.preheader.i:                               ; preds = %2
  %4 = add nuw nsw i32 %1, 1
  %wide.trip.count.i = zext nneg i32 %4 to i64
  br label %.lr.ph.i

.lr.ph.i:                                         ; preds = %.lr.ph.i, %.lr.ph.preheader.i
  %indvars.iv.i = phi i64 [ 0, %.lr.ph.preheader.i ], [ %indvars.iv.next.i, %.lr.ph.i ]
  %.010.i = phi double [ 0.000000e+00, %.lr.ph.preheader.i ], [ %7, %.lr.ph.i ]
  %5 = getelementptr inbounds nuw double, ptr %0, i64 %indvars.iv.i
  %6 = load double, ptr %5, align 8, !tbaa !10
  %7 = tail call double @llvm.fmuladd.f64(double %6, double %6, double %.010.i)
  %indvars.iv.next.i = add nuw nsw i64 %indvars.iv.i, 1
  %exitcond.not.i = icmp eq i64 %indvars.iv.next.i, %wide.trip.count.i
  br i1 %exitcond.not.i, label %vectors_inner_product.exit, label %.lr.ph.i, !llvm.loop !14

vectors_inner_product.exit:                       ; preds = %.lr.ph.i, %2
  %.0.lcssa.i = phi double [ 0.000000e+00, %2 ], [ %7, %.lr.ph.i ]
  %8 = tail call double @sqrt(double noundef %.0.lcssa.i) #21, !tbaa !17
  ret double %8
}